target datalayout = "e-m:e-p270:32:32-p271:32:32-p272:64:64-i64:64-i128:128-f80:128-n8:16:32:64-S128"
target triple = "x86_64-pc-linux-gnu"

%struct.XErrorEvent = type { i32, ptr, i64, i64, i8, i8, i8 }

@PreXRRSetScreenSizeErrorHandler = internal global ptr null, align 8

; Function Attrs: nounwind uwtable
define internal i32 @SDL_XRRSetScreenSizeErrHandler(ptr noundef %0, ptr noundef %1) #0 {
  %3 = alloca i32, align 4
  %4 = alloca ptr, align 8
  %5 = alloca ptr, align 8
  store ptr %0, ptr %4, align 8
  store ptr %1, ptr %5, align 8
  %6 = load ptr, ptr %5, align 8
  %7 = getelementptr inbounds nuw %struct.XErrorEvent, ptr %6, i32 0, i32 4
  %8 = load i8, ptr %7, align 8
  %9 = zext i8 %8 to i32
  %10 = icmp eq i32 %9, 8
  br i1 %10, label %17, label %11

11:                                               ; preds = %2
  %12 = load ptr, ptr %5, align 8
  %13 = getelementptr inbounds nuw %struct.XErrorEvent, ptr %12, i32 0, i32 4
  %14 = load i8, ptr %13, align 8
  %15 = zext i8 %14 to i32
  %16 = icmp eq i32 %15, 2
  br i1 %16, label %17, label %18

17:                                               ; preds = %11, %2
  store i32 0, ptr %3, align 4
  br label %23

18:                                               ; preds = %11
  %19 = load ptr, ptr @PreXRRSetScreenSizeErrorHandler, align 8
  %20 = load ptr, ptr %4, align 8
  %21 = load ptr, ptr %5, align 8
  %22 = call i32 %19(ptr noundef %20, ptr noundef %21)
  store i32 %22, ptr %3, align 4
  br label %23

23:                                               ; preds = %18, %17
  %24 = load i32, ptr %3, align 4
  ret i32 %24
}