; Function Attrs: nounwind uwtable
define internal i32 @SDL_XRRSetScreenSizeErrHandler(ptr noundef %0, ptr noundef %1) #0 {
  %3 = getelementptr inbounds nuw i8, ptr %1, i64 32
  %4 = load i8, ptr %3, align 8
  switch i8 %4, label %5 [
    i8 8, label %8
    i8 2, label %8
  ]

5:                                                ; preds = %2
  %6 = load ptr, ptr @PreXRRSetScreenSizeErrorHandler, align 8
  %7 = tail call i32 %6(ptr noundef %0, ptr noundef nonnull %1) #8
  br label %8

8:                                                ; preds = %2, %2, %5
  %.0 = phi i32 [ %7, %5 ], [ 0, %2 ], [ 0, %2 ]
  ret i32 %.0
}